; Function Attrs: mustprogress nofree norecurse nosync nounwind willreturn memory(read, argmem: readwrite, inaccessiblemem: none) uwtable
define void @_ZN14duckdb_parquet19EncryptionAlgorithmC2Ev(ptr noundef nonnull align 8 dereferenceable(169) initializes((0, 16)) %0, ptr noundef readonly captures(none) %1) unnamed_addr #7 align 2 personality ptr @__gxx_personality_v0 {
  %3 = load ptr, ptr %1, align 8
  store ptr %3, ptr %0, align 8, !tbaa !22
  %4 = getelementptr inbounds nuw i8, ptr %1, i64 8
  %5 = load ptr, ptr %4, align 8
  %6 = getelementptr i8, ptr %3, i64 -48
  %7 = load i64, ptr %6, align 8
  %8 = getelementptr inbounds i8, ptr %0, i64 %7
  store ptr %5, ptr %8, align 8, !tbaa !22
  %9 = getelementptr inbounds nuw i8, ptr %0, i64 8
  store ptr getelementptr inbounds nuw inrange(-48, 40) (i8, ptr @_ZTVN14duckdb_parquet8AesGcmV1E, i64 48), ptr %9, align 8, !tbaa !22
  %10 = getelementptr inbounds nuw i8, ptr %0, i64 16
  %11 = getelementptr inbounds nuw i8, ptr %0, i64 32
  store ptr %11, ptr %10, align 8, !tbaa !33
  %12 = getelementptr inbounds nuw i8, ptr %0, i64 24
  store i64 0, ptr %12, align 8, !tbaa !39
  store i8 0, ptr %11, align 8, !tbaa !38
  %13 = getelementptr inbounds nuw i8, ptr %0, i64 48
  %14 = getelementptr inbounds nuw i8, ptr %0, i64 64
  store ptr %14, ptr %13, align 8, !tbaa !33
  %15 = getelementptr inbounds nuw i8, ptr %0, i64 56
  store i64 0, ptr %15, align 8, !tbaa !39
  store i8 0, ptr %14, align 8, !tbaa !38
  %16 = getelementptr inbounds nuw i8, ptr %0, i64 80
  store i8 0, ptr %16, align 8, !tbaa !762
  %17 = getelementptr inbounds nuw i8, ptr %0, i64 81
  %18 = load i8, ptr %17, align 1
  %19 = and i8 %18, -8
  store i8 %19, ptr %17, align 1
  %20 = getelementptr inbounds nuw i8, ptr %0, i64 88
  store ptr getelementptr inbounds nuw inrange(-48, 40) (i8, ptr @_ZTVN14duckdb_parquet11AesGcmCtrV1E, i64 48), ptr %20, align 8, !tbaa !22
  %21 = getelementptr inbounds nuw i8, ptr %0, i64 96
  %22 = getelementptr inbounds nuw i8, ptr %0, i64 112
  store ptr %22, ptr %21, align 8, !tbaa !33
  %23 = getelementptr inbounds nuw i8, ptr %0, i64 104
  store i64 0, ptr %23, align 8, !tbaa !39
  store i8 0, ptr %22, align 8, !tbaa !38
  %24 = getelementptr inbounds nuw i8, ptr %0, i64 128
  %25 = getelementptr inbounds nuw i8, ptr %0, i64 144
  store ptr %25, ptr %24, align 8, !tbaa !33
  %26 = getelementptr inbounds nuw i8, ptr %0, i64 136
  store i64 0, ptr %26, align 8, !tbaa !39
  store i8 0, ptr %25, align 8, !tbaa !38
  %27 = getelementptr inbounds nuw i8, ptr %0, i64 160
  store i8 0, ptr %27, align 8, !tbaa !766
  %28 = getelementptr inbounds nuw i8, ptr %0, i64 161
  %29 = load i8, ptr %28, align 1
  %30 = and i8 %29, -8
  store i8 %30, ptr %28, align 1
  %31 = getelementptr inbounds nuw i8, ptr %0, i64 168
  %32 = load i8, ptr %31, align 8
  %33 = and i8 %32, -4
  store i8 %33, ptr %31, align 8
  ret void
}